; Function Attrs: null_pointer_is_valid sspstrong uwtable
define internal range(i32 -268435456, 268435456) i32 @dissect_NRPPa_PDU_PDU(ptr noundef %0, ptr noundef %1, ptr noundef %2, ptr readnone captures(none) %3) #0 {
  %5 = alloca ptr, align 8
  %6 = alloca %struct._asn1_ctx_t, align 8
  call void @llvm.lifetime.start.p0(i64 208, ptr nonnull %6) #12
  call void @asn1_ctx_init(ptr noundef nonnull %6, i32 noundef 1, i1 noundef zeroext true, ptr noundef %1)
  %7 = load i32, ptr @hf_ngap_NRPPa_PDU_PDU, align 4
  %8 = getelementptr inbounds nuw i8, ptr %6, i64 16
  %9 = load ptr, ptr %8, align 8
  %10 = getelementptr inbounds nuw i8, ptr %9, i64 408
  %11 = load ptr, ptr %10, align 8
  %12 = load i32, ptr @proto_json, align 4
  %13 = call ptr @p_get_proto_data(ptr noundef %11, ptr noundef %9, i32 noundef %12, i32 noundef 0)
  %.not.i = icmp eq ptr %13, null
  br i1 %.not.i, label %18, label %14

14:                                               ; preds = %4
  %15 = load ptr, ptr %8, align 8
  %16 = getelementptr inbounds nuw i8, ptr %15, i64 8
  %17 = load ptr, ptr %16, align 8
  call void @col_append_sep_str(ptr noundef %17, i32 noundef 25, ptr noundef null, ptr noundef nonnull @.str.560)
  br label %18

18:                                               ; preds = %14, %4
  call void @llvm.lifetime.start.p0(i64 8, ptr nonnull %5) #12
  store ptr null, ptr %5, align 8
  %19 = call i32 @dissect_per_octet_string(ptr noundef %0, i32 noundef 0, ptr noundef nonnull %6, ptr noundef %2, i32 noundef %7, i32 noundef -1, i32 noundef -1, i1 noundef zeroext false, ptr noundef nonnull %5)
  %20 = load ptr, ptr %5, align 8
  %21 = call i32 @tvb_reported_length(ptr noundef %20)
  %22 = icmp ne i32 %21, 0
  %23 = load ptr, ptr @nrppa_handle, align 8
  %24 = icmp ne ptr %23, null
  %or.cond.i = select i1 %22, i1 %24, i1 false
  br i1 %or.cond.i, label %25, label %dissect_ngap_NRPPa_PDU.exit

25:                                               ; preds = %18
  %26 = load ptr, ptr %5, align 8
  %27 = load ptr, ptr %8, align 8
  %28 = call i32 @call_dissector(ptr noundef nonnull %23, ptr noundef %26, ptr noundef %27, ptr noundef %2)
  br label %dissect_ngap_NRPPa_PDU.exit

dissect_ngap_NRPPa_PDU.exit:                      ; preds = %18, %25
  call void @llvm.lifetime.end.p0(i64 8, ptr nonnull %5) #12
  %29 = add i32 %19, 7
  %30 = ashr i32 %29, 3
  call void @llvm.lifetime.end.p0(i64 208, ptr nonnull %6) #12
  ret i32 %30
}